target datalayout = "e-m:e-p270:32:32-p271:32:32-p272:64:64-i64:64-i128:128-f80:128-n8:16:32:64-S128"
target triple = "x86_64-pc-linux-gnu"

%struct.Expr = type { i32 }
%struct.FuncExpr = type { %struct.Expr, i32, i32, i8, i8, i32, i32, i32, ptr, i32 }
%struct.Node = type { i32 }

; Function Attrs: inlinehint nounwind willreturn memory(read) uwtable
define available_externally i32 @atoi(ptr noundef nonnull %0) #6 {
  %2 = alloca ptr, align 8
  store ptr %0, ptr %2, align 8
  %3 = load ptr, ptr %2, align 8
  %4 = call i64 @strtol(ptr noundef %3, ptr noundef null, i32 noundef 10) #9
  %5 = trunc i64 %4 to i32
  ret i32 %5
}

; Function Attrs: inlinehint nounwind uwtable
define internal ptr @newNode(i64 noundef %0, i32 noundef %1) #7 {
  %3 = alloca i64, align 8
  %4 = alloca i32, align 4
  %5 = alloca ptr, align 8
  store i64 %0, ptr %3, align 8
  store i32 %1, ptr %4, align 4
  call void @llvm.lifetime.start.p0(i64 8, ptr %5) #9
  %6 = load i64, ptr %3, align 8
  %7 = call ptr @palloc0(i64 noundef %6)
  store ptr %7, ptr %5, align 8
  %8 = load i32, ptr %4, align 4
  %9 = load ptr, ptr %5, align 8
  %10 = getelementptr inbounds nuw %struct.Node, ptr %9, i32 0, i32 0
  store i32 %8, ptr %10, align 4
  %11 = load ptr, ptr %5, align 8
  call void @llvm.lifetime.end.p0(i64 8, ptr %5) #9
  ret ptr %11
}

; Function Attrs: nounwind uwtable
define internal ptr @_readFuncExpr() #0 {
  %1 = alloca ptr, align 8
  %2 = alloca ptr, align 8
  %3 = alloca i32, align 4
  call void @llvm.lifetime.start.p0(i64 8, ptr %1) #9
  %4 = call ptr @newNode(i64 noundef 48, i32 noundef 15)
  store ptr %4, ptr %1, align 8
  call void @llvm.lifetime.start.p0(i64 8, ptr %2) #9
  call void @llvm.lifetime.start.p0(i64 4, ptr %3) #9
  %5 = call ptr @pg_strtok(ptr noundef %3)
  store ptr %5, ptr %2, align 8
  %6 = call ptr @pg_strtok(ptr noundef %3)
  store ptr %6, ptr %2, align 8
  %7 = load ptr, ptr %2, align 8
  %8 = call i64 @strtoul(ptr noundef %7, ptr noundef null, i32 noundef 10) #9
  %9 = trunc i64 %8 to i32
  %10 = load ptr, ptr %1, align 8
  %11 = getelementptr inbounds nuw %struct.FuncExpr, ptr %10, i32 0, i32 1
  store i32 %9, ptr %11, align 4
  %12 = call ptr @pg_strtok(ptr noundef %3)
  store ptr %12, ptr %2, align 8
  %13 = call ptr @pg_strtok(ptr noundef %3)
  store ptr %13, ptr %2, align 8
  %14 = load ptr, ptr %2, align 8
  %15 = call i64 @strtoul(ptr noundef %14, ptr noundef null, i32 noundef 10) #9
  %16 = trunc i64 %15 to i32
  %17 = load ptr, ptr %1, align 8
  %18 = getelementptr inbounds nuw %struct.FuncExpr, ptr %17, i32 0, i32 2
  store i32 %16, ptr %18, align 8
  %19 = call ptr @pg_strtok(ptr noundef %3)
  store ptr %19, ptr %2, align 8
  %20 = call ptr @pg_strtok(ptr noundef %3)
  store ptr %20, ptr %2, align 8
  %21 = load ptr, ptr %2, align 8
  %22 = load i8, ptr %21, align 1
  %23 = sext i8 %22 to i32
  %24 = icmp eq i32 %23, 116
  %25 = select i1 %24, i32 1, i32 0
  %26 = icmp ne i32 %25, 0
  %27 = load ptr, ptr %1, align 8
  %28 = getelementptr inbounds nuw %struct.FuncExpr, ptr %27, i32 0, i32 3
  %29 = zext i1 %26 to i8
  store i8 %29, ptr %28, align 4
  %30 = call ptr @pg_strtok(ptr noundef %3)
  store ptr %30, ptr %2, align 8
  %31 = call ptr @pg_strtok(ptr noundef %3)
  store ptr %31, ptr %2, align 8
  %32 = load ptr, ptr %2, align 8
  %33 = load i8, ptr %32, align 1
  %34 = sext i8 %33 to i32
  %35 = icmp eq i32 %34, 116
  %36 = select i1 %35, i32 1, i32 0
  %37 = icmp ne i32 %36, 0
  %38 = load ptr, ptr %1, align 8
  %39 = getelementptr inbounds nuw %struct.FuncExpr, ptr %38, i32 0, i32 4
  %40 = zext i1 %37 to i8
  store i8 %40, ptr %39, align 1
  %41 = call ptr @pg_strtok(ptr noundef %3)
  store ptr %41, ptr %2, align 8
  %42 = call ptr @pg_strtok(ptr noundef %3)
  store ptr %42, ptr %2, align 8
  %43 = load ptr, ptr %2, align 8
  %44 = call i32 @atoi(ptr noundef %43) #11
  %45 = load ptr, ptr %1, align 8
  %46 = getelementptr inbounds nuw %struct.FuncExpr, ptr %45, i32 0, i32 5
  store i32 %44, ptr %46, align 8
  %47 = call ptr @pg_strtok(ptr noundef %3)
  store ptr %47, ptr %2, align 8
  %48 = call ptr @pg_strtok(ptr noundef %3)
  store ptr %48, ptr %2, align 8
  %49 = load ptr, ptr %2, align 8
  %50 = call i64 @strtoul(ptr noundef %49, ptr noundef null, i32 noundef 10) #9
  %51 = trunc i64 %50 to i32
  %52 = load ptr, ptr %1, align 8
  %53 = getelementptr inbounds nuw %struct.FuncExpr, ptr %52, i32 0, i32 6
  store i32 %51, ptr %53, align 4
  %54 = call ptr @pg_strtok(ptr noundef %3)
  store ptr %54, ptr %2, align 8
  %55 = call ptr @pg_strtok(ptr noundef %3)
  store ptr %55, ptr %2, align 8
  %56 = load ptr, ptr %2, align 8
  %57 = call i64 @strtoul(ptr noundef %56, ptr noundef null, i32 noundef 10) #9
  %58 = trunc i64 %57 to i32
  %59 = load ptr, ptr %1, align 8
  %60 = getelementptr inbounds nuw %struct.FuncExpr, ptr %59, i32 0, i32 7
  store i32 %58, ptr %60, align 8
  %61 = call ptr @pg_strtok(ptr noundef %3)
  store ptr %61, ptr %2, align 8
  %62 = call ptr @nodeRead(ptr noundef null, i32 noundef 0)
  %63 = load ptr, ptr %1, align 8
  %64 = getelementptr inbounds nuw %struct.FuncExpr, ptr %63, i32 0, i32 8
  store ptr %62, ptr %64, align 8
  %65 = call ptr @pg_strtok(ptr noundef %3)
  store ptr %65, ptr %2, align 8
  %66 = call ptr @pg_strtok(ptr noundef %3)
  store ptr %66, ptr %2, align 8
  %67 = load ptr, ptr %1, align 8
  %68 = getelementptr inbounds nuw %struct.FuncExpr, ptr %67, i32 0, i32 9
  store i32 -1, ptr %68, align 8
  %69 = load ptr, ptr %1, align 8
  call void @llvm.lifetime.end.p0(i64 4, ptr %3) #9
  call void @llvm.lifetime.end.p0(i64 8, ptr %2) #9
  call void @llvm.lifetime.end.p0(i64 8, ptr %1) #9
  ret ptr %69
}