; Function Attrs: nounwind uwtable
define internal fastcc noundef ptr @_readFuncExpr() unnamed_addr #0 {
  %1 = alloca i32, align 4
  %2 = tail call noundef ptr @palloc0(i64 noundef 48) #10
  store i32 15, ptr %2, align 4
  call void @llvm.lifetime.start.p0(i64 4, ptr nonnull %1) #10
  %3 = call ptr @pg_strtok(ptr noundef nonnull %1) #10
  %4 = call ptr @pg_strtok(ptr noundef nonnull %1) #10
  %5 = call i64 @strtoul(ptr noundef captures(none) %4, ptr noundef null, i32 noundef 10) #10
  %6 = trunc i64 %5 to i32
  %7 = getelementptr inbounds nuw i8, ptr %2, i64 4
  store i32 %6, ptr %7, align 4
  %8 = call ptr @pg_strtok(ptr noundef nonnull %1) #10
  %9 = call ptr @pg_strtok(ptr noundef nonnull %1) #10
  %10 = call i64 @strtoul(ptr noundef captures(none) %9, ptr noundef null, i32 noundef 10) #10
  %11 = trunc i64 %10 to i32
  %12 = getelementptr inbounds nuw i8, ptr %2, i64 8
  store i32 %11, ptr %12, align 8
  %13 = call ptr @pg_strtok(ptr noundef nonnull %1) #10
  %14 = call ptr @pg_strtok(ptr noundef nonnull %1) #10
  %15 = load i8, ptr %14, align 1
  %16 = icmp eq i8 %15, 116
  %17 = getelementptr inbounds nuw i8, ptr %2, i64 12
  %18 = zext i1 %16 to i8
  store i8 %18, ptr %17, align 4
  %19 = call ptr @pg_strtok(ptr noundef nonnull %1) #10
  %20 = call ptr @pg_strtok(ptr noundef nonnull %1) #10
  %21 = load i8, ptr %20, align 1
  %22 = icmp eq i8 %21, 116
  %23 = getelementptr inbounds nuw i8, ptr %2, i64 13
  %24 = zext i1 %22 to i8
  store i8 %24, ptr %23, align 1
  %25 = call ptr @pg_strtok(ptr noundef nonnull %1) #10
  %26 = call ptr @pg_strtok(ptr noundef nonnull %1) #10
  %27 = call i64 @strtol(ptr noundef nonnull captures(none) %26, ptr noundef null, i32 noundef 10) #10
  %28 = trunc i64 %27 to i32
  %29 = getelementptr inbounds nuw i8, ptr %2, i64 16
  store i32 %28, ptr %29, align 8
  %30 = call ptr @pg_strtok(ptr noundef nonnull %1) #10
  %31 = call ptr @pg_strtok(ptr noundef nonnull %1) #10
  %32 = call i64 @strtoul(ptr noundef captures(none) %31, ptr noundef null, i32 noundef 10) #10
  %33 = trunc i64 %32 to i32
  %34 = getelementptr inbounds nuw i8, ptr %2, i64 20
  store i32 %33, ptr %34, align 4
  %35 = call ptr @pg_strtok(ptr noundef nonnull %1) #10
  %36 = call ptr @pg_strtok(ptr noundef nonnull %1) #10
  %37 = call i64 @strtoul(ptr noundef captures(none) %36, ptr noundef null, i32 noundef 10) #10
  %38 = trunc i64 %37 to i32
  %39 = getelementptr inbounds nuw i8, ptr %2, i64 24
  store i32 %38, ptr %39, align 8
  %40 = call ptr @pg_strtok(ptr noundef nonnull %1) #10
  %41 = call ptr @nodeRead(ptr noundef null, i32 noundef 0) #10
  %42 = getelementptr inbounds nuw i8, ptr %2, i64 32
  store ptr %41, ptr %42, align 8
  %43 = call ptr @pg_strtok(ptr noundef nonnull %1) #10
  %44 = call ptr @pg_strtok(ptr noundef nonnull %1) #10
  %45 = getelementptr inbounds nuw i8, ptr %2, i64 40
  store i32 -1, ptr %45, align 8
  call void @llvm.lifetime.end.p0(i64 4, ptr nonnull %1) #10
  ret ptr %2
}